target datalayout = "e-m:e-p270:32:32-p271:32:32-p272:64:64-i64:64-i128:128-f80:128-n8:16:32:64-S128"
target triple = "x86_64-pc-linux-gnu"

%struct._typeobject = type { %struct.PyVarObject, ptr, i64, i64, ptr, i64, ptr, ptr, ptr, ptr, ptr, ptr, ptr, ptr, ptr, ptr, ptr, ptr, ptr, i64, ptr, ptr, ptr, ptr, i64, ptr, ptr, ptr, ptr, ptr, ptr, ptr, ptr, ptr, i64, ptr, ptr, ptr, ptr, ptr, ptr, ptr, ptr, ptr, ptr, ptr, i32, ptr, ptr, i8, i16 }
%struct.PyVarObject = type { %struct._object, i64 }
%struct._object = type { %union.anon, ptr }
%union.anon = type { i64 }
%struct.PyType_Slot = type { i32, ptr }
%struct.PyType_Spec = type { ptr, i32, i32, i32, ptr }

@.str.41 = private unnamed_addr constant [40 x i8] c"../cpython/Modules/_testcapi/heaptype.c\00", align 1
@empty_type_slots = internal global [1 x %struct.PyType_Slot] zeroinitializer, align 16
@.str.67 = private unnamed_addr constant [19 x i8] c"PyType_Check(base)\00", align 1
@__PRETTY_FUNCTION__.make_immutable_type_with_base = private unnamed_addr constant [64 x i8] c"PyObject *make_immutable_type_with_base(PyObject *, PyObject *)\00", align 1
@.str.68 = private unnamed_addr constant [18 x i8] c"ImmutableSubclass\00", align 1

; Function Attrs: inlinehint nounwind uwtable
define internal i32 @PyType_HasFeature(ptr noundef %0, i64 noundef %1) #4 {
  %3 = alloca ptr, align 8
  %4 = alloca i64, align 8
  %5 = alloca i64, align 8
  store ptr %0, ptr %3, align 8, !tbaa !25
  store i64 %1, ptr %4, align 8, !tbaa !53
  call void @llvm.lifetime.start.p0(i64 8, ptr %5) #9
  %6 = load ptr, ptr %3, align 8, !tbaa !25
  %7 = getelementptr inbounds nuw %struct._typeobject, ptr %6, i32 0, i32 19
  %8 = load i64, ptr %7, align 8, !tbaa !54
  store i64 %8, ptr %5, align 8, !tbaa !53
  %9 = load i64, ptr %5, align 8, !tbaa !53
  %10 = load i64, ptr %4, align 8, !tbaa !53
  %11 = and i64 %9, %10
  %12 = icmp ne i64 %11, 0
  %13 = zext i1 %12 to i32
  call void @llvm.lifetime.end.p0(i64 8, ptr %5) #9
  ret i32 %13
}

; Function Attrs: inlinehint nounwind uwtable
define internal ptr @_Py_TYPE(ptr noundef %0) #4 {
  %2 = alloca ptr, align 8
  store ptr %0, ptr %2, align 8, !tbaa !3
  %3 = load ptr, ptr %2, align 8, !tbaa !3
  %4 = getelementptr inbounds nuw %struct._object, ptr %3, i32 0, i32 1
  %5 = load ptr, ptr %4, align 8, !tbaa !55
  ret ptr %5
}

; Function Attrs: inlinehint nounwind uwtable
define internal i32 @PyType_Check(ptr noundef %0) #4 {
  %2 = alloca ptr, align 8
  store ptr %0, ptr %2, align 8, !tbaa !3
  %3 = load ptr, ptr %2, align 8, !tbaa !3
  %4 = call ptr @_Py_TYPE(ptr noundef %3)
  %5 = call i32 @PyType_HasFeature(ptr noundef %4, i64 noundef 2147483648)
  ret i32 %5
}

; Function Attrs: nounwind uwtable
define internal ptr @make_immutable_type_with_base(ptr noundef %0, ptr noundef %1) #0 {
  %3 = alloca ptr, align 8
  %4 = alloca ptr, align 8
  %5 = alloca %struct.PyType_Spec, align 8
  store ptr %0, ptr %3, align 8, !tbaa !3
  store ptr %1, ptr %4, align 8, !tbaa !3
  %6 = load ptr, ptr %4, align 8, !tbaa !3
  %7 = call i32 @PyType_Check(ptr noundef %6)
  %8 = icmp ne i32 %7, 0
  br i1 %8, label %9, label %10

9:                                                ; preds = %2
  br label %12

10:                                               ; preds = %2
  call void @__assert_fail(ptr noundef @.str.67, ptr noundef @.str.41, i32 noundef 378, ptr noundef @__PRETTY_FUNCTION__.make_immutable_type_with_base) #11
  unreachable

11:                                               ; No predecessors!
  br label %12

12:                                               ; preds = %11, %9
  call void @llvm.lifetime.start.p0(i64 32, ptr %5) #9
  %13 = getelementptr inbounds nuw %struct.PyType_Spec, ptr %5, i32 0, i32 0
  store ptr @.str.68, ptr %13, align 8, !tbaa !13
  %14 = getelementptr inbounds nuw %struct.PyType_Spec, ptr %5, i32 0, i32 1
  %15 = load ptr, ptr %4, align 8, !tbaa !3
  %16 = getelementptr inbounds nuw %struct._typeobject, ptr %15, i32 0, i32 2
  %17 = load i64, ptr %16, align 8, !tbaa !51
  %18 = trunc i64 %17 to i32
  store i32 %18, ptr %14, align 8, !tbaa !16
  %19 = getelementptr inbounds nuw %struct.PyType_Spec, ptr %5, i32 0, i32 2
  store i32 0, ptr %19, align 4, !tbaa !17
  %20 = getelementptr inbounds nuw %struct.PyType_Spec, ptr %5, i32 0, i32 3
  store i32 256, ptr %20, align 8, !tbaa !18
  %21 = getelementptr i8, ptr %5, i64 20
  call void @llvm.memset.p0.i64(ptr align 4 %21, i8 0, i64 4, i1 false)
  %22 = getelementptr inbounds nuw %struct.PyType_Spec, ptr %5, i32 0, i32 4
  store ptr @empty_type_slots, ptr %22, align 8, !tbaa !19
  %23 = load ptr, ptr %4, align 8, !tbaa !3
  %24 = call ptr @PyType_FromSpecWithBases(ptr noundef %5, ptr noundef %23)
  call void @llvm.lifetime.end.p0(i64 32, ptr %5) #9
  ret ptr %24
}